(dp0
I0
(lp1
sI1
(lp2
sI2
(lp3
VTop 4 Challenges Quality Leaders Face and How They\u2019re Solving Them: Mehul Shah and I recently hosted an intera... http://t.co/XabaQ0dBWq
p4
asI3
(lp5
VQuality, to Infinity and Beyond at Infusion 2014: Recently LNS Senior Associate Mehul Shah and I had the pleas... http://t.co/bNQ2MITANW
p6
aV#NeechKarmOfCongress\u000a#AAPKranti\u000a#SoDrunk\u000a#DareToBeDifferent\u000a#MakesMeSmile\u000aWide Area Network\u000aAmit Shah in Ishrat Jahan\u000aRahul Gandhi
p7
asI4
(lp8
sI5
(lp9
s.